target datalayout = "e-m:e-p270:32:32-p271:32:32-p272:64:64-i64:64-i128:128-f80:128-n8:16:32:64-S128"
target triple = "x86_64-pc-linux-gnu"

; Function Attrs: mustprogress nounwind uwtable
define internal noundef i64 @_ZN7meshoptL18getVertexBlockSizeEm(i64 noundef %0) #1 {
  %2 = alloca i64, align 8
  %3 = alloca i64, align 8
  store i64 %0, ptr %2, align 8, !tbaa !18
  call void @llvm.lifetime.start.p0(i64 8, ptr %3) #14
  %4 = load i64, ptr %2, align 8, !tbaa !18
  %5 = udiv i64 8192, %4
  %6 = and i64 %5, -16
  store i64 %6, ptr %3, align 8, !tbaa !18
  %7 = load i64, ptr %3, align 8, !tbaa !18
  %8 = icmp ult i64 %7, 256
  br i1 %8, label %9, label %11

9:                                                ; preds = %1
  %10 = load i64, ptr %3, align 8, !tbaa !18
  br label %12

11:                                               ; preds = %1
  br label %12

12:                                               ; preds = %11, %9
  %13 = phi i64 [ %10, %9 ], [ 256, %11 ]
  call void @llvm.lifetime.end.p0(i64 8, ptr %3) #14
  ret i64 %13
}

; Function Attrs: mustprogress uwtable
define dso_local i64 @meshopt_encodeVertexBufferBound(i64 noundef %0, i64 noundef %1) #2 {
  %3 = alloca i64, align 8
  %4 = alloca i64, align 8
  %5 = alloca i64, align 8
  %6 = alloca i64, align 8
  %7 = alloca i64, align 8
  %8 = alloca i64, align 8
  %9 = alloca i64, align 8
  %10 = alloca i64, align 8
  %11 = alloca i64, align 8
  %12 = alloca i64, align 8
  store i64 %0, ptr %3, align 8, !tbaa !18
  store i64 %1, ptr %4, align 8, !tbaa !18
  call void @llvm.lifetime.start.p0(i64 8, ptr %5) #14
  %13 = load i64, ptr %4, align 8, !tbaa !18
  %14 = call noundef i64 @_ZN7meshoptL18getVertexBlockSizeEm(i64 noundef %13)
  store i64 %14, ptr %5, align 8, !tbaa !18
  call void @llvm.lifetime.start.p0(i64 8, ptr %6) #14
  %15 = load i64, ptr %3, align 8, !tbaa !18
  %16 = load i64, ptr %5, align 8, !tbaa !18
  %17 = add i64 %15, %16
  %18 = sub i64 %17, 1
  %19 = load i64, ptr %5, align 8, !tbaa !18
  %20 = udiv i64 %18, %19
  store i64 %20, ptr %6, align 8, !tbaa !18
  call void @llvm.lifetime.start.p0(i64 8, ptr %7) #14
  %21 = load i64, ptr %4, align 8, !tbaa !18
  %22 = udiv i64 %21, 4
  store i64 %22, ptr %7, align 8, !tbaa !18
  call void @llvm.lifetime.start.p0(i64 8, ptr %8) #14
  %23 = load i64, ptr %5, align 8, !tbaa !18
  %24 = udiv i64 %23, 16
  %25 = add i64 %24, 3
  %26 = udiv i64 %25, 4
  store i64 %26, ptr %8, align 8, !tbaa !18
  call void @llvm.lifetime.start.p0(i64 8, ptr %9) #14
  %27 = load i64, ptr %5, align 8, !tbaa !18
  store i64 %27, ptr %9, align 8, !tbaa !18
  call void @llvm.lifetime.start.p0(i64 8, ptr %10) #14
  %28 = load i64, ptr %4, align 8, !tbaa !18
  %29 = load i64, ptr %4, align 8, !tbaa !18
  %30 = udiv i64 %29, 4
  %31 = add i64 %28, %30
  store i64 %31, ptr %10, align 8, !tbaa !18
  call void @llvm.lifetime.start.p0(i64 8, ptr %11) #14
  store i64 32, ptr %11, align 8, !tbaa !18
  call void @llvm.lifetime.start.p0(i64 8, ptr %12) #14
  %32 = load i64, ptr %10, align 8, !tbaa !18
  %33 = load i64, ptr %11, align 8, !tbaa !18
  %34 = icmp ult i64 %32, %33
  br i1 %34, label %35, label %37

35:                                               ; preds = %2
  %36 = load i64, ptr %11, align 8, !tbaa !18
  br label %39

37:                                               ; preds = %2
  %38 = load i64, ptr %10, align 8, !tbaa !18
  br label %39

39:                                               ; preds = %37, %35
  %40 = phi i64 [ %36, %35 ], [ %38, %37 ]
  store i64 %40, ptr %12, align 8, !tbaa !18
  %41 = load i64, ptr %6, align 8, !tbaa !18
  %42 = load i64, ptr %4, align 8, !tbaa !18
  %43 = mul i64 %41, %42
  %44 = load i64, ptr %7, align 8, !tbaa !18
  %45 = load i64, ptr %8, align 8, !tbaa !18
  %46 = add i64 %44, %45
  %47 = load i64, ptr %9, align 8, !tbaa !18
  %48 = add i64 %46, %47
  %49 = mul i64 %43, %48
  %50 = add i64 1, %49
  %51 = load i64, ptr %12, align 8, !tbaa !18
  %52 = add i64 %50, %51
  call void @llvm.lifetime.end.p0(i64 8, ptr %12) #14
  call void @llvm.lifetime.end.p0(i64 8, ptr %11) #14
  call void @llvm.lifetime.end.p0(i64 8, ptr %10) #14
  call void @llvm.lifetime.end.p0(i64 8, ptr %9) #14
  call void @llvm.lifetime.end.p0(i64 8, ptr %8) #14
  call void @llvm.lifetime.end.p0(i64 8, ptr %7) #14
  call void @llvm.lifetime.end.p0(i64 8, ptr %6) #14
  call void @llvm.lifetime.end.p0(i64 8, ptr %5) #14
  ret i64 %52
}