; Function Attrs: mustprogress nofree norecurse nosync nounwind willreturn memory(none) uwtable
define dso_local i64 @meshopt_encodeVertexBufferBound(i64 noundef %0, i64 noundef %1) local_unnamed_addr #4 {
  %3 = udiv i64 8192, %1
  %4 = and i64 %3, 16368
  %5 = icmp ugt i64 %1, 32
  %6 = select i1 %5, i64 %4, i64 256
  %7 = add i64 %0, -1
  %8 = add i64 %7, %6
  %9 = udiv i64 %8, %6
  %10 = lshr i64 %1, 2
  %11 = lshr exact i64 %6, 4
  %12 = add nuw nsw i64 %11, 3
  %13 = lshr i64 %12, 2
  %14 = add i64 %10, %1
  %15 = tail call i64 @llvm.umax.i64(i64 %14, i64 32)
  %16 = mul i64 %9, %1
  %17 = add nuw nsw i64 %6, %10
  %18 = add nuw nsw i64 %17, %13
  %19 = mul i64 %16, %18
  %20 = add i64 %15, 1
  %21 = add i64 %20, %19
  ret i64 %21
}